target datalayout = "e-m:e-p270:32:32-p271:32:32-p272:64:64-i64:64-i128:128-f80:128-n8:16:32:64-S128"
target triple = "x86_64-pc-linux-gnu"

%struct.lean_object = type { i32, i32 }
%struct.lean_ctor_object = type { %struct.lean_object, [0 x ptr] }

@l_Std_Format_defWidth = external global ptr, align 8
@l_Lake_stdTomlConfigFileContents___closed__1 = internal global ptr null, align 8
@l_Lake_stdTomlConfigFileContents___closed__2 = internal global ptr null, align 8
@l_Lake_stdTomlConfigFileContents___closed__3 = internal global ptr null, align 8
@l_Lake_gitignoreContents___closed__4 = internal global ptr null, align 8

; Function Attrs: inlinehint nounwind uwtable
define internal ptr @lean_box(i64 noundef %0) #1 {
  %2 = alloca i64, align 8
  store i64 %0, ptr %2, align 8, !tbaa !8
  %3 = load i64, ptr %2, align 8, !tbaa !8
  %4 = shl i64 %3, 1
  %5 = or i64 %4, 1
  %6 = inttoptr i64 %5 to ptr
  ret ptr %6
}

; Function Attrs: inlinehint nounwind uwtable
define internal ptr @lean_to_ctor(ptr noundef %0) #1 {
  %2 = alloca ptr, align 8
  store ptr %0, ptr %2, align 8, !tbaa !4
  %3 = load ptr, ptr %2, align 8, !tbaa !4
  ret ptr %3
}

; Function Attrs: inlinehint nounwind uwtable
define internal ptr @lean_alloc_small_object(i32 noundef %0) #1 {
  %2 = alloca i32, align 4
  %3 = alloca ptr, align 8
  %4 = alloca ptr, align 8
  store i32 %0, ptr %2, align 4, !tbaa !10
  call void @lean_inc_heartbeat()
  %5 = load i32, ptr %2, align 4, !tbaa !10
  %6 = zext i32 %5 to i64
  %7 = call i64 @lean_align(i64 noundef %6, i64 noundef 8)
  %8 = trunc i64 %7 to i32
  store i32 %8, ptr %2, align 4, !tbaa !10
  call void @llvm.lifetime.start.p0(i64 8, ptr %3) #7
  %9 = load i32, ptr %2, align 4, !tbaa !10
  %10 = zext i32 %9 to i64
  %11 = call noalias ptr @mi_malloc_small(i64 noundef %10)
  store ptr %11, ptr %3, align 8, !tbaa !4
  %12 = load ptr, ptr %3, align 8, !tbaa !4
  %13 = icmp eq ptr %12, null
  br i1 %13, label %14, label %15

14:                                               ; preds = %1
  call void @lean_internal_panic_out_of_memory() #8
  unreachable

15:                                               ; preds = %1
  call void @llvm.lifetime.start.p0(i64 8, ptr %4) #7
  %16 = load ptr, ptr %3, align 8, !tbaa !4
  store ptr %16, ptr %4, align 8, !tbaa !4
  %17 = load i32, ptr %2, align 4, !tbaa !10
  %18 = load ptr, ptr %4, align 8, !tbaa !4
  %19 = getelementptr inbounds nuw %struct.lean_object, ptr %18, i32 0, i32 1
  %20 = load i32, ptr %19, align 4
  %21 = and i32 %17, 65535
  %22 = and i32 %20, -65536
  %23 = or i32 %22, %21
  store i32 %23, ptr %19, align 4
  %24 = load ptr, ptr %4, align 8, !tbaa !4
  call void @llvm.lifetime.end.p0(i64 8, ptr %4) #7
  call void @llvm.lifetime.end.p0(i64 8, ptr %3) #7
  ret ptr %24
}

; Function Attrs: inlinehint nounwind uwtable
define internal i64 @lean_align(i64 noundef %0, i64 noundef %1) #1 {
  %3 = alloca i64, align 8
  %4 = alloca i64, align 8
  store i64 %0, ptr %3, align 8, !tbaa !8
  store i64 %1, ptr %4, align 8, !tbaa !8
  %5 = load i64, ptr %3, align 8, !tbaa !8
  %6 = load i64, ptr %4, align 8, !tbaa !8
  %7 = udiv i64 %5, %6
  %8 = load i64, ptr %4, align 8, !tbaa !8
  %9 = mul i64 %7, %8
  %10 = load i64, ptr %4, align 8, !tbaa !8
  %11 = load i64, ptr %3, align 8, !tbaa !8
  %12 = load i64, ptr %4, align 8, !tbaa !8
  %13 = urem i64 %11, %12
  %14 = icmp ne i64 %13, 0
  %15 = zext i1 %14 to i32
  %16 = sext i32 %15 to i64
  %17 = mul i64 %10, %16
  %18 = add i64 %9, %17
  ret i64 %18
}

; Function Attrs: alwaysinline nounwind uwtable
define internal void @lean_dec_ref(ptr noundef %0) #0 {
  %2 = alloca ptr, align 8
  store ptr %0, ptr %2, align 8, !tbaa !4
  %3 = load ptr, ptr %2, align 8, !tbaa !4
  %4 = getelementptr inbounds nuw %struct.lean_object, ptr %3, i32 0, i32 0
  %5 = load i32, ptr %4, align 4, !tbaa !15
  %6 = icmp sgt i32 %5, 1
  %7 = zext i1 %6 to i32
  %8 = sext i32 %7 to i64
  %9 = call i64 @llvm.expect.i64(i64 %8, i64 1)
  %10 = icmp ne i64 %9, 0
  br i1 %10, label %11, label %16

11:                                               ; preds = %1
  %12 = load ptr, ptr %2, align 8, !tbaa !4
  %13 = getelementptr inbounds nuw %struct.lean_object, ptr %12, i32 0, i32 0
  %14 = load i32, ptr %13, align 4, !tbaa !15
  %15 = add i32 %14, -1
  store i32 %15, ptr %13, align 4, !tbaa !15
  br label %24

16:                                               ; preds = %1
  %17 = load ptr, ptr %2, align 8, !tbaa !4
  %18 = getelementptr inbounds nuw %struct.lean_object, ptr %17, i32 0, i32 0
  %19 = load i32, ptr %18, align 4, !tbaa !15
  %20 = icmp ne i32 %19, 0
  br i1 %20, label %21, label %23

21:                                               ; preds = %16
  %22 = load ptr, ptr %2, align 8, !tbaa !4
  call void @lean_dec_ref_cold(ptr noundef %22)
  br label %23

23:                                               ; preds = %21, %16
  br label %24

24:                                               ; preds = %23, %11
  ret void
}

; Function Attrs: alwaysinline nounwind uwtable
define internal zeroext i1 @lean_is_scalar(ptr noundef %0) #0 {
  %2 = alloca ptr, align 8
  store ptr %0, ptr %2, align 8, !tbaa !4
  %3 = load ptr, ptr %2, align 8, !tbaa !4
  %4 = ptrtoint ptr %3 to i64
  %5 = and i64 %4, 1
  %6 = icmp eq i64 %5, 1
  ret i1 %6
}

; Function Attrs: inlinehint nounwind uwtable
define internal ptr @lean_usize_to_nat(i64 noundef %0) #1 {
  %2 = alloca ptr, align 8
  %3 = alloca i64, align 8
  store i64 %0, ptr %3, align 8, !tbaa !8
  %4 = load i64, ptr %3, align 8, !tbaa !8
  %5 = icmp ule i64 %4, 9223372036854775807
  %6 = zext i1 %5 to i32
  %7 = sext i32 %6 to i64
  %8 = call i64 @llvm.expect.i64(i64 %7, i64 1)
  %9 = icmp ne i64 %8, 0
  br i1 %9, label %10, label %13

10:                                               ; preds = %1
  %11 = load i64, ptr %3, align 8, !tbaa !8
  %12 = call ptr @lean_box(i64 noundef %11)
  store ptr %12, ptr %2, align 8
  br label %16

13:                                               ; preds = %1
  %14 = load i64, ptr %3, align 8, !tbaa !8
  %15 = call ptr @lean_big_usize_to_nat(i64 noundef %14)
  store ptr %15, ptr %2, align 8
  br label %16

16:                                               ; preds = %13, %10
  %17 = load ptr, ptr %2, align 8
  ret ptr %17
}

; Function Attrs: inlinehint nounwind uwtable
define internal ptr @lean_ctor_obj_cptr(ptr noundef %0) #1 {
  %2 = alloca ptr, align 8
  store ptr %0, ptr %2, align 8, !tbaa !4
  %3 = load ptr, ptr %2, align 8, !tbaa !4
  %4 = call ptr @lean_to_ctor(ptr noundef %3)
  %5 = getelementptr inbounds nuw %struct.lean_ctor_object, ptr %4, i32 0, i32 1
  %6 = getelementptr inbounds [0 x ptr], ptr %5, i64 0, i64 0
  ret ptr %6
}

; Function Attrs: inlinehint nounwind uwtable
define internal void @lean_set_st_header(ptr noundef %0, i32 noundef %1, i32 noundef %2) #1 {
  %4 = alloca ptr, align 8
  %5 = alloca i32, align 4
  %6 = alloca i32, align 4
  store ptr %0, ptr %4, align 8, !tbaa !4
  store i32 %1, ptr %5, align 4, !tbaa !10
  store i32 %2, ptr %6, align 4, !tbaa !10
  %7 = load ptr, ptr %4, align 8, !tbaa !4
  %8 = getelementptr inbounds nuw %struct.lean_object, ptr %7, i32 0, i32 0
  store i32 1, ptr %8, align 4, !tbaa !15
  %9 = load i32, ptr %5, align 4, !tbaa !10
  %10 = load ptr, ptr %4, align 8, !tbaa !4
  %11 = getelementptr inbounds nuw %struct.lean_object, ptr %10, i32 0, i32 1
  %12 = load i32, ptr %11, align 4
  %13 = and i32 %9, 255
  %14 = shl i32 %13, 24
  %15 = and i32 %12, 16777215
  %16 = or i32 %15, %14
  store i32 %16, ptr %11, align 4
  %17 = load i32, ptr %6, align 4, !tbaa !10
  %18 = load ptr, ptr %4, align 8, !tbaa !4
  %19 = getelementptr inbounds nuw %struct.lean_object, ptr %18, i32 0, i32 1
  %20 = load i32, ptr %19, align 4
  %21 = and i32 %17, 255
  %22 = shl i32 %21, 16
  %23 = and i32 %20, -16711681
  %24 = or i32 %23, %22
  store i32 %24, ptr %19, align 4
  ret void
}

; Function Attrs: inlinehint nounwind uwtable
define internal ptr @lean_alloc_ctor_memory(i32 noundef %0) #1 {
  %2 = alloca i32, align 4
  %3 = alloca i32, align 4
  %4 = alloca ptr, align 8
  %5 = alloca ptr, align 8
  store i32 %0, ptr %2, align 4, !tbaa !10
  call void @llvm.lifetime.start.p0(i64 4, ptr %3) #7
  %6 = load i32, ptr %2, align 4, !tbaa !10
  %7 = zext i32 %6 to i64
  %8 = call i64 @lean_align(i64 noundef %7, i64 noundef 8)
  %9 = trunc i64 %8 to i32
  store i32 %9, ptr %3, align 4, !tbaa !10
  call void @llvm.lifetime.start.p0(i64 8, ptr %4) #7
  %10 = load i32, ptr %2, align 4, !tbaa !10
  %11 = call ptr @lean_alloc_small_object(i32 noundef %10)
  store ptr %11, ptr %4, align 8, !tbaa !4
  %12 = load i32, ptr %3, align 4, !tbaa !10
  %13 = load i32, ptr %2, align 4, !tbaa !10
  %14 = icmp ugt i32 %12, %13
  br i1 %14, label %15, label %22

15:                                               ; preds = %1
  call void @llvm.lifetime.start.p0(i64 8, ptr %5) #7
  %16 = load ptr, ptr %4, align 8, !tbaa !4
  %17 = load i32, ptr %3, align 4, !tbaa !10
  %18 = zext i32 %17 to i64
  %19 = getelementptr inbounds nuw i8, ptr %16, i64 %18
  store ptr %19, ptr %5, align 8, !tbaa !23
  %20 = load ptr, ptr %5, align 8, !tbaa !23
  %21 = getelementptr inbounds i64, ptr %20, i64 -1
  store i64 0, ptr %21, align 8, !tbaa !8
  call void @llvm.lifetime.end.p0(i64 8, ptr %5) #7
  br label %22

22:                                               ; preds = %15, %1
  %23 = load ptr, ptr %4, align 8, !tbaa !4
  call void @llvm.lifetime.end.p0(i64 8, ptr %4) #7
  call void @llvm.lifetime.end.p0(i64 4, ptr %3) #7
  ret ptr %23
}

; Function Attrs: alwaysinline nounwind uwtable
define internal void @lean_dec(ptr noundef %0) #0 {
  %2 = alloca ptr, align 8
  store ptr %0, ptr %2, align 8, !tbaa !4
  %3 = load ptr, ptr %2, align 8, !tbaa !4
  %4 = call zeroext i1 @lean_is_scalar(ptr noundef %3)
  br i1 %4, label %7, label %5

5:                                                ; preds = %1
  %6 = load ptr, ptr %2, align 8, !tbaa !4
  call void @lean_dec_ref(ptr noundef %6)
  br label %7

7:                                                ; preds = %5, %1
  ret void
}

; Function Attrs: inlinehint nounwind uwtable
define internal ptr @lean_unsigned_to_nat(i32 noundef %0) #1 {
  %2 = alloca i32, align 4
  store i32 %0, ptr %2, align 4, !tbaa !10
  %3 = load i32, ptr %2, align 4, !tbaa !10
  %4 = zext i32 %3 to i64
  %5 = call ptr @lean_usize_to_nat(i64 noundef %4)
  ret ptr %5
}

; Function Attrs: inlinehint nounwind uwtable
define internal void @lean_ctor_set(ptr noundef %0, i32 noundef %1, ptr noundef %2) #1 {
  %4 = alloca ptr, align 8
  %5 = alloca i32, align 4
  %6 = alloca ptr, align 8
  store ptr %0, ptr %4, align 8, !tbaa !4
  store i32 %1, ptr %5, align 4, !tbaa !10
  store ptr %2, ptr %6, align 8, !tbaa !4
  %7 = load ptr, ptr %6, align 8, !tbaa !4
  %8 = load ptr, ptr %4, align 8, !tbaa !4
  %9 = call ptr @lean_ctor_obj_cptr(ptr noundef %8)
  %10 = load i32, ptr %5, align 4, !tbaa !10
  %11 = zext i32 %10 to i64
  %12 = getelementptr inbounds nuw ptr, ptr %9, i64 %11
  store ptr %7, ptr %12, align 8, !tbaa !4
  ret void
}

; Function Attrs: inlinehint nounwind uwtable
define internal ptr @lean_alloc_ctor(i32 noundef %0, i32 noundef %1, i32 noundef %2) #1 {
  %4 = alloca i32, align 4
  %5 = alloca i32, align 4
  %6 = alloca i32, align 4
  %7 = alloca ptr, align 8
  store i32 %0, ptr %4, align 4, !tbaa !10
  store i32 %1, ptr %5, align 4, !tbaa !10
  store i32 %2, ptr %6, align 4, !tbaa !10
  call void @llvm.lifetime.start.p0(i64 8, ptr %7) #7
  %8 = load i32, ptr %5, align 4, !tbaa !10
  %9 = zext i32 %8 to i64
  %10 = mul i64 8, %9
  %11 = add i64 8, %10
  %12 = load i32, ptr %6, align 4, !tbaa !10
  %13 = zext i32 %12 to i64
  %14 = add i64 %11, %13
  %15 = trunc i64 %14 to i32
  %16 = call ptr @lean_alloc_ctor_memory(i32 noundef %15)
  store ptr %16, ptr %7, align 8, !tbaa !4
  %17 = load ptr, ptr %7, align 8, !tbaa !4
  %18 = load i32, ptr %4, align 4, !tbaa !10
  %19 = load i32, ptr %5, align 4, !tbaa !10
  call void @lean_set_st_header(ptr noundef %17, i32 noundef %18, i32 noundef %19)
  %20 = load ptr, ptr %7, align 8, !tbaa !4
  call void @llvm.lifetime.end.p0(i64 8, ptr %7) #7
  ret ptr %20
}

; Function Attrs: nounwind uwtable
define ptr @l_Lake_libTomlConfigFileContents(ptr noundef %0, ptr noundef %1) #2 {
  %3 = alloca ptr, align 8
  %4 = alloca ptr, align 8
  %5 = alloca ptr, align 8
  %6 = alloca ptr, align 8
  %7 = alloca ptr, align 8
  %8 = alloca ptr, align 8
  %9 = alloca ptr, align 8
  %10 = alloca ptr, align 8
  %11 = alloca ptr, align 8
  %12 = alloca ptr, align 8
  %13 = alloca ptr, align 8
  %14 = alloca ptr, align 8
  %15 = alloca ptr, align 8
  %16 = alloca ptr, align 8
  %17 = alloca ptr, align 8
  %18 = alloca ptr, align 8
  %19 = alloca ptr, align 8
  %20 = alloca ptr, align 8
  %21 = alloca ptr, align 8
  %22 = alloca ptr, align 8
  store ptr %0, ptr %3, align 8, !tbaa !4
  store ptr %1, ptr %4, align 8, !tbaa !4
  br label %23

23:                                               ; preds = %2
  call void @llvm.lifetime.start.p0(i64 8, ptr %5) #7
  call void @llvm.lifetime.start.p0(i64 8, ptr %6) #7
  call void @llvm.lifetime.start.p0(i64 8, ptr %7) #7
  call void @llvm.lifetime.start.p0(i64 8, ptr %8) #7
  call void @llvm.lifetime.start.p0(i64 8, ptr %9) #7
  call void @llvm.lifetime.start.p0(i64 8, ptr %10) #7
  call void @llvm.lifetime.start.p0(i64 8, ptr %11) #7
  call void @llvm.lifetime.start.p0(i64 8, ptr %12) #7
  call void @llvm.lifetime.start.p0(i64 8, ptr %13) #7
  call void @llvm.lifetime.start.p0(i64 8, ptr %14) #7
  call void @llvm.lifetime.start.p0(i64 8, ptr %15) #7
  call void @llvm.lifetime.start.p0(i64 8, ptr %16) #7
  call void @llvm.lifetime.start.p0(i64 8, ptr %17) #7
  call void @llvm.lifetime.start.p0(i64 8, ptr %18) #7
  call void @llvm.lifetime.start.p0(i64 8, ptr %19) #7
  call void @llvm.lifetime.start.p0(i64 8, ptr %20) #7
  call void @llvm.lifetime.start.p0(i64 8, ptr %21) #7
  call void @llvm.lifetime.start.p0(i64 8, ptr %22) #7
  %24 = load ptr, ptr %3, align 8, !tbaa !4
  %25 = call ptr @l_String_quote(ptr noundef %24)
  store ptr %25, ptr %5, align 8, !tbaa !4
  %26 = call ptr @lean_alloc_ctor(i32 noundef 3, i32 noundef 1, i32 noundef 0)
  store ptr %26, ptr %6, align 8, !tbaa !4
  %27 = load ptr, ptr %6, align 8, !tbaa !4
  %28 = load ptr, ptr %5, align 8, !tbaa !4
  call void @lean_ctor_set(ptr noundef %27, i32 noundef 0, ptr noundef %28)
  %29 = load ptr, ptr @l_Std_Format_defWidth, align 8, !tbaa !4
  store ptr %29, ptr %7, align 8, !tbaa !4
  %30 = call ptr @lean_unsigned_to_nat(i32 noundef 0)
  store ptr %30, ptr %8, align 8, !tbaa !4
  %31 = load ptr, ptr %6, align 8, !tbaa !4
  %32 = load ptr, ptr %7, align 8, !tbaa !4
  %33 = load ptr, ptr %8, align 8, !tbaa !4
  %34 = load ptr, ptr %8, align 8, !tbaa !4
  %35 = call ptr @lean_format_pretty(ptr noundef %31, ptr noundef %32, ptr noundef %33, ptr noundef %34)
  store ptr %35, ptr %9, align 8, !tbaa !4
  %36 = load ptr, ptr @l_Lake_stdTomlConfigFileContents___closed__1, align 8, !tbaa !4
  store ptr %36, ptr %10, align 8, !tbaa !4
  %37 = load ptr, ptr %10, align 8, !tbaa !4
  %38 = load ptr, ptr %9, align 8, !tbaa !4
  %39 = call ptr @lean_string_append(ptr noundef %37, ptr noundef %38)
  store ptr %39, ptr %11, align 8, !tbaa !4
  %40 = load ptr, ptr %9, align 8, !tbaa !4
  call void @lean_dec(ptr noundef %40)
  %41 = load ptr, ptr @l_Lake_stdTomlConfigFileContents___closed__2, align 8, !tbaa !4
  store ptr %41, ptr %12, align 8, !tbaa !4
  %42 = load ptr, ptr %11, align 8, !tbaa !4
  %43 = load ptr, ptr %12, align 8, !tbaa !4
  %44 = call ptr @lean_string_append(ptr noundef %42, ptr noundef %43)
  store ptr %44, ptr %13, align 8, !tbaa !4
  %45 = load ptr, ptr %4, align 8, !tbaa !4
  %46 = call ptr @l_String_quote(ptr noundef %45)
  store ptr %46, ptr %14, align 8, !tbaa !4
  %47 = call ptr @lean_alloc_ctor(i32 noundef 3, i32 noundef 1, i32 noundef 0)
  store ptr %47, ptr %15, align 8, !tbaa !4
  %48 = load ptr, ptr %15, align 8, !tbaa !4
  %49 = load ptr, ptr %14, align 8, !tbaa !4
  call void @lean_ctor_set(ptr noundef %48, i32 noundef 0, ptr noundef %49)
  %50 = load ptr, ptr %15, align 8, !tbaa !4
  %51 = load ptr, ptr %7, align 8, !tbaa !4
  %52 = load ptr, ptr %8, align 8, !tbaa !4
  %53 = load ptr, ptr %8, align 8, !tbaa !4
  %54 = call ptr @lean_format_pretty(ptr noundef %50, ptr noundef %51, ptr noundef %52, ptr noundef %53)
  store ptr %54, ptr %16, align 8, !tbaa !4
  %55 = load ptr, ptr %13, align 8, !tbaa !4
  %56 = load ptr, ptr %16, align 8, !tbaa !4
  %57 = call ptr @lean_string_append(ptr noundef %55, ptr noundef %56)
  store ptr %57, ptr %17, align 8, !tbaa !4
  %58 = load ptr, ptr @l_Lake_stdTomlConfigFileContents___closed__3, align 8, !tbaa !4
  store ptr %58, ptr %18, align 8, !tbaa !4
  %59 = load ptr, ptr %17, align 8, !tbaa !4
  %60 = load ptr, ptr %18, align 8, !tbaa !4
  %61 = call ptr @lean_string_append(ptr noundef %59, ptr noundef %60)
  store ptr %61, ptr %19, align 8, !tbaa !4
  %62 = load ptr, ptr %19, align 8, !tbaa !4
  %63 = load ptr, ptr %16, align 8, !tbaa !4
  %64 = call ptr @lean_string_append(ptr noundef %62, ptr noundef %63)
  store ptr %64, ptr %20, align 8, !tbaa !4
  %65 = load ptr, ptr %16, align 8, !tbaa !4
  call void @lean_dec(ptr noundef %65)
  %66 = load ptr, ptr @l_Lake_gitignoreContents___closed__4, align 8, !tbaa !4
  store ptr %66, ptr %21, align 8, !tbaa !4
  %67 = load ptr, ptr %20, align 8, !tbaa !4
  %68 = load ptr, ptr %21, align 8, !tbaa !4
  %69 = call ptr @lean_string_append(ptr noundef %67, ptr noundef %68)
  store ptr %69, ptr %22, align 8, !tbaa !4
  %70 = load ptr, ptr %22, align 8, !tbaa !4
  call void @llvm.lifetime.end.p0(i64 8, ptr %22) #7
  call void @llvm.lifetime.end.p0(i64 8, ptr %21) #7
  call void @llvm.lifetime.end.p0(i64 8, ptr %20) #7
  call void @llvm.lifetime.end.p0(i64 8, ptr %19) #7
  call void @llvm.lifetime.end.p0(i64 8, ptr %18) #7
  call void @llvm.lifetime.end.p0(i64 8, ptr %17) #7
  call void @llvm.lifetime.end.p0(i64 8, ptr %16) #7
  call void @llvm.lifetime.end.p0(i64 8, ptr %15) #7
  call void @llvm.lifetime.end.p0(i64 8, ptr %14) #7
  call void @llvm.lifetime.end.p0(i64 8, ptr %13) #7
  call void @llvm.lifetime.end.p0(i64 8, ptr %12) #7
  call void @llvm.lifetime.end.p0(i64 8, ptr %11) #7
  call void @llvm.lifetime.end.p0(i64 8, ptr %10) #7
  call void @llvm.lifetime.end.p0(i64 8, ptr %9) #7
  call void @llvm.lifetime.end.p0(i64 8, ptr %8) #7
  call void @llvm.lifetime.end.p0(i64 8, ptr %7) #7
  call void @llvm.lifetime.end.p0(i64 8, ptr %6) #7
  call void @llvm.lifetime.end.p0(i64 8, ptr %5) #7
  ret ptr %70
}