; Function Attrs: nounwind uwtable
define ptr @l_Lake_libTomlConfigFileContents(ptr noundef %0, ptr noundef %1) local_unnamed_addr #1 {
  %3 = tail call ptr @l_String_quote(ptr noundef %0) #6
  tail call void @lean_inc_heartbeat() #6
  %4 = tail call noalias ptr @mi_malloc_small(i64 noundef 16) #6
  %5 = icmp eq ptr %4, null
  br i1 %5, label %6, label %lean_alloc_ctor.exit

6:                                                ; preds = %2
  tail call void @lean_internal_panic_out_of_memory() #7
  unreachable

lean_alloc_ctor.exit:                             ; preds = %2
  %7 = getelementptr inbounds nuw i8, ptr %4, i64 4
  store i32 1, ptr %4, align 4, !tbaa !8
  store i32 50397200, ptr %7, align 4
  %8 = getelementptr inbounds nuw i8, ptr %4, i64 8
  store ptr %3, ptr %8, align 8, !tbaa !4
  %9 = load ptr, ptr @l_Std_Format_defWidth, align 8, !tbaa !4
  %10 = tail call ptr @lean_format_pretty(ptr noundef nonnull %4, ptr noundef %9, ptr noundef nonnull inttoptr (i64 1 to ptr), ptr noundef nonnull inttoptr (i64 1 to ptr)) #6
  %11 = load ptr, ptr @l_Lake_stdTomlConfigFileContents___closed__1, align 8, !tbaa !4
  %12 = tail call ptr @lean_string_append(ptr noundef %11, ptr noundef %10) #6
  %13 = ptrtoint ptr %10 to i64
  %14 = and i64 %13, 1
  %.not = icmp eq i64 %14, 0
  br i1 %.not, label %15, label %lean_dec.exit29

15:                                               ; preds = %lean_alloc_ctor.exit
  %16 = load i32, ptr %10, align 4, !tbaa !8
  %17 = icmp sgt i32 %16, 1
  br i1 %17, label %18, label %20, !prof !11

18:                                               ; preds = %15
  %19 = add nsw i32 %16, -1
  store i32 %19, ptr %10, align 4, !tbaa !8
  br label %lean_dec.exit29

20:                                               ; preds = %15
  %.not.i = icmp eq i32 %16, 0
  br i1 %.not.i, label %lean_dec.exit29, label %21

21:                                               ; preds = %20
  tail call void @lean_dec_ref_cold(ptr noundef nonnull %10) #6
  br label %lean_dec.exit29

lean_dec.exit29:                                  ; preds = %21, %20, %18, %lean_alloc_ctor.exit
  %22 = load ptr, ptr @l_Lake_stdTomlConfigFileContents___closed__2, align 8, !tbaa !4
  %23 = tail call ptr @lean_string_append(ptr noundef %12, ptr noundef %22) #6
  %24 = tail call ptr @l_String_quote(ptr noundef %1) #6
  tail call void @lean_inc_heartbeat() #6
  %25 = tail call noalias ptr @mi_malloc_small(i64 noundef 16) #6
  %26 = icmp eq ptr %25, null
  br i1 %26, label %27, label %lean_alloc_ctor.exit32

27:                                               ; preds = %lean_dec.exit29
  tail call void @lean_internal_panic_out_of_memory() #7
  unreachable

lean_alloc_ctor.exit32:                           ; preds = %lean_dec.exit29
  %28 = getelementptr inbounds nuw i8, ptr %25, i64 4
  store i32 1, ptr %25, align 4, !tbaa !8
  store i32 50397200, ptr %28, align 4
  %29 = getelementptr inbounds nuw i8, ptr %25, i64 8
  store ptr %24, ptr %29, align 8, !tbaa !4
  %30 = tail call ptr @lean_format_pretty(ptr noundef nonnull %25, ptr noundef %9, ptr noundef nonnull inttoptr (i64 1 to ptr), ptr noundef nonnull inttoptr (i64 1 to ptr)) #6
  %31 = tail call ptr @lean_string_append(ptr noundef %23, ptr noundef %30) #6
  %32 = load ptr, ptr @l_Lake_stdTomlConfigFileContents___closed__3, align 8, !tbaa !4
  %33 = tail call ptr @lean_string_append(ptr noundef %31, ptr noundef %32) #6
  %34 = tail call ptr @lean_string_append(ptr noundef %33, ptr noundef %30) #6
  %35 = ptrtoint ptr %30 to i64
  %36 = and i64 %35, 1
  %.not33 = icmp eq i64 %36, 0
  br i1 %.not33, label %37, label %lean_dec.exit

37:                                               ; preds = %lean_alloc_ctor.exit32
  %38 = load i32, ptr %30, align 4, !tbaa !8
  %39 = icmp sgt i32 %38, 1
  br i1 %39, label %40, label %42, !prof !11

40:                                               ; preds = %37
  %41 = add nsw i32 %38, -1
  store i32 %41, ptr %30, align 4, !tbaa !8
  br label %lean_dec.exit

42:                                               ; preds = %37
  %.not.i30 = icmp eq i32 %38, 0
  br i1 %.not.i30, label %lean_dec.exit, label %43

43:                                               ; preds = %42
  tail call void @lean_dec_ref_cold(ptr noundef nonnull %30) #6
  br label %lean_dec.exit

lean_dec.exit:                                    ; preds = %43, %42, %40, %lean_alloc_ctor.exit32
  %44 = load ptr, ptr @l_Lake_gitignoreContents___closed__4, align 8, !tbaa !4
  %45 = tail call ptr @lean_string_append(ptr noundef %34, ptr noundef %44) #6
  ret ptr %45
}